ccollections
OrderedDict
p0
((lp1
(lp2
S'h_caL13'
p3
acnumpy.core.multiarray
scalar
p4
(cnumpy
dtype
p5
(S'f8'
p6
I0
I1
tp7
Rp8
(I3
S'<'
p9
NNNI-1
I-1
I0
tp10
bS'\xfc\x84wE\x00\xbd\xef?'
p11
tp12
Rp13
aa(lp14
S'm_caL13'
p15
ag4
(g8
S'\xfa} d\xb6Jn?'
p16
tp17
Rp18
aa(lp19
S'o_AMPA'
p20
ag4
(g8
S'\x00\x00\x00\x00\x00\x00\x00\x00'
p21
tp22
Rp23
aa(lp24
S'd_AMPA'
p25
ag4
(g8
S'\x00\x00\x00\x00\x00\x00\x00\x00'
p26
tp27
Rp28
aa(lp29
S'o_NMDA'
p30
ag4
(g8
S'\x00\x00\x00\x00\x00\x00\x00\x00'
p31
tp32
Rp33
aa(lp34
S'h_CICR'
p35
ag4
(g8
S'9\xc7\xb8\xa2s\xd4\xea?'
p36
tp37
Rp38
aa(lp39
S'Ca_cyt'
p40
ag4
(g8
S'\x0b\xdd\xc55\x17\xd2Z@'
p41
tp42
Rp43
aa(lp44
S'Ca_ER'
p45
ag4
(g8
S'"\x1fhQ\x80h\xee@'
p46
tp47
Rp48
aa(lp49
S'DAGLP'
p50
ag4
(g8
S'\xe0\xa3C\xfa\x14\xed\x8a>'
p51
tp52
Rp53
aa(lp54
S'AEA'
p55
ag4
(g8
S'?\xfaMjz\x92\x15@'
p56
tp57
Rp58
aa(lp59
S'fpre'
p60
ag4
(g8
S'\x00\x00\x00\x00\x00\x00\xf0?'
p61
tp62
Rp63
aa(lp64
S'PP1'
p65
ag4
(g8
S'\xf3\x10\xc6\xa8\x9a\xbe\xe2?'
p66
tp67
Rp68
aa(lp69
S'V'
p70
ag4
(g8
S'|*\x93\xd0\xf0\x7fQ\xc0'
p71
tp72
Rp73
aa(lp74
S'o_CB1R'
p75
ag4
(g8
S'5\xd9\r3\xe7U\x94>'
p76
tp77
Rp78
aa(lp79
S'd_CB1R'
p80
ag4
(g8
S'\xb6\xde\x0cx\x98\x9ee?'
p81
tp82
Rp83
aa(lp84
S'B1'
p85
ag4
(g8
S'\xca5^\xf8\xc0v\\@'
p86
tp87
Rp88
aa(lp89
S'B2'
p90
ag4
(g8
S'\n\x1a\xd1\r\x13\xf0\xf4?'
p91
tp92
Rp93
aa(lp94
S'B3'
p95
ag4
(g8
S')\xed1r\xe3\xdc\xb1?'
p96
tp97
Rp98
aa(lp99
S'B4'
p100
ag4
(g8
S'\xb1Z\xc2;\xe3\xbb\xa0?'
p101
tp102
Rp103
aa(lp104
S'B5'
p105
ag4
(g8
S'\x0f:c\xf2V\x9b\x85?'
p106
tp107
Rp108
aa(lp109
S'B6'
p110
ag4
(g8
S'\x8c\xe3\x1cHq=I?'
p111
tp112
Rp113
aa(lp114
S'B7'
p115
ag4
(g8
S'\xf0\xa0\xf6u\xadGJ?'
p116
tp117
Rp118
aa(lp119
S'B8'
p120
ag4
(g8
S'&\x03\xca\xe4\x82\xd2\xef>'
p121
tp122
Rp123
aa(lp124
S'B9'
p125
ag4
(g8
S'pw\x95\x8aW7\x12?'
p126
tp127
Rp128
aa(lp129
S'B10'
p130
ag4
(g8
S'O\xa7\xb5U\xbc^\xdb>'
p131
tp132
Rp133
aa(lp134
S'B11'
p135
ag4
(g8
S'\xc9\xcdl\x7f\x91\xe0\xd2>'
p136
tp137
Rp138
aa(lp139
S'B12'
p140
ag4
(g8
S'$Io\x18\xbc+\x9c>'
p141
tp142
Rp143
aa(lp144
S'B13'
p145
ag4
(g8
S'$/\xd3\xe8\x13\t\x1b>'
p146
tp147
Rp148
aa(lp149
S'pmca'
p150
ag4
(g8
S'PR\x8e\xb7\x84\xcb|@'
p151
tp152
Rp153
aa(lp154
S'pmcaCa'
p155
ag4
(g8
S'-\xae8\xe6K\xbei@'
p156
tp157
Rp158
aa(lp159
S'CaOut'
p160
ag4
(g8
S'\xfc\xb3reobFA'
p161
tp162
Rp163
aa(lp164
S'ncx'
p165
ag4
(g8
S'\xe9+PU\xd4?\xd2@'
p166
tp167
Rp168
aa(lp169
S'ncxCa'
p170
ag4
(g8
S'ET\xfd\xaa\xba\x82\x94@'
p171
tp172
Rp173
aa(lp174
S'Leak'
p175
ag4
(g8
S'\xf75\xee\x1ak(z@'
p176
tp177
Rp178
aa(lp179
S'CaOutLeak'
p180
ag4
(g8
S'\x05\x1fQNy\xcd\xb5@'
p181
tp182
Rp183
aa(lp184
S'Calbin'
p185
ag4
(g8
S'\x15\x95%\xdb;\x87\x03A'
p186
tp187
Rp188
aa(lp189
S'CalbinC'
p190
ag4
(g8
S'\xd9\x0b\x17M\x9b\x848@'
p191
tp192
Rp193
aa(lp194
S'CamCa4'
p195
ag4
(g8
S'@e8O\xf6\xee4@'
p196
tp197
Rp198
aa(lp199
S'CamCa2N'
p200
ag4
(g8
S'\x1ee\x16\xaf\x95=q@'
p201
tp202
Rp203
aa(lp204
S'DaDbuf'
p205
ag4
(g8
S'\x00\x00\x00\x00\x00\x00\x00\x00'
p206
tp207
Rp208
aa(lp209
S'Dbuf'
p210
ag4
(g8
S'\x00\x00\x00\x00\x00\x00\x00\x00'
p211
tp212
Rp213
aa(lp214
S'DaOut'
p215
ag4
(g8
S'\xcf\x00\xe4Z\xd4i\x08A'
p216
tp217
Rp218
aa(lp219
S'Da'
p220
ag4
(g8
S'_\x9e\x05\x85?\xfa%@'
p221
tp222
Rp223
aa(lp224
S'DaD1R'
p225
ag4
(g8
S'V\xceL\xbfR\xca\x9b?'
p226
tp227
Rp228
aa(lp229
S'Gsabg'
p230
ag4
(g8
S'R\xcb%\xe9}4\xc6@'
p231
tp232
Rp233
aa(lp234
S'DaD1RGs'
p235
ag4
(g8
S'N\xc4\x8b\xe6\xc7\xa3,@'
p236
tp237
Rp238
aa(lp239
S'D1R'
p240
ag4
(g8
S'O=~\x7f~[\x12@'
p241
tp242
Rp243
aa(lp244
S'GsD1R'
p245
ag4
(g8
S'\x94\xbf\xe0\xc7\x1ba\x94@'
p246
tp247
Rp248
aa(lp249
S'GsaGTP'
p250
ag4
(g8
S'f\x06\xce2\x04r\x1a@'
p251
tp252
Rp253
aa(lp254
S'Gbg'
p255
ag4
(g8
S'&\xfbtb\xf0\xdd\x83@'
p256
tp257
Rp258
aa(lp259
S'PKAc'
p260
ag4
(g8
S'5\xd6\x16\xa5L\xbc(@'
p261
tp262
Rp263
aa(lp264
S'PKAcDaD1RGs'
p265
ag4
(g8
S'\xcf\xb3\x9f%i\xa7\xf6?'
p266
tp267
Rp268
aa(lp269
S'pDaD1RGs'
p270
ag4
(g8
S'H\x85\xedEmh!@'
p271
tp272
Rp273
aa(lp274
S'GluGbuf'
p275
ag4
(g8
S'\x00\x00\x00\x00\x00\x00\x00\x00'
p276
tp277
Rp278
aa(lp279
S'Gbuf'
p280
ag4
(g8
S'\x00\x00\x00\x00\x00\x00\x00\x00'
p281
tp282
Rp283
aa(lp284
S'GluOut'
p285
ag4
(g8
S"g'v\x1a\xf3\x0c\x08A"
p286
tp287
Rp288
aa(lp289
S'GluMgluR'
p290
ag4
(g8
S'\x00\x00\x00\x00\x00\x00\x00\x00'
p291
tp292
Rp293
aa(lp294
S'GluMgluRdesens'
p295
ag4
(g8
S'\x00\x00\x00\x00\x00\x00\x00\x00'
p296
tp297
Rp298
aa(lp299
S'MgluR'
p300
ag4
(g8
S'\x00\x00\x00\x00\x00\x00\x00\x00'
p301
tp302
Rp303
aa(lp304
S'Gqabg'
p305
ag4
(g8
S'\x01\xf9\xbd\xe9z\xb7\xb7@'
p306
tp307
Rp308
aa(lp309
S'MgluRGq'
p310
ag4
(g8
S'\x00\x00\x00\x00\x00\x00\x00\x00'
p311
tp312
Rp313
aa(lp314
S'GluMgluRGq'
p315
ag4
(g8
S'\x00\x00\x00\x00\x00\x00\x00\x00'
p316
tp317
Rp318
aa(lp319
S'GqaGTP'
p320
ag4
(g8
S'>\xb7\xed\xe2\x8a\xf0\xec\x15'
p321
tp322
Rp323
aa(lp324
S'ACh'
p325
ag4
(g8
S'<J\xea\x0055\xb1\x15'
p326
tp327
Rp328
aa(lp329
S'm1R'
p330
ag4
(g8
S'\x04\xa0\x84o\xba\xdeQ@'
p331
tp332
Rp333
aa(lp334
S'AChm1R'
p335
ag4
(g8
S'\xb4\xad_\x00B\xdfD\x15'
p336
tp337
Rp338
aa(lp339
S'AChm1RGq'
p340
ag4
(g8
S'\x0b\x7f1\x8a\xce\xf9\xb9\x15'
p341
tp342
Rp343
aa(lp344
S'm1RGq'
p345
ag4
(g8
S'q\x9fd\x07~\x99\x82@'
p346
tp347
Rp348
aa(lp349
S'm4R'
p350
ag4
(g8
S'a\xafN|x\xa89@'
p351
tp352
Rp353
aa(lp354
S'AChm4R'
p355
ag4
(g8
S'v\xbd\x14\x9cN\x9dT\x15'
p356
tp357
Rp358
aa(lp359
S'Giabg'
p360
ag4
(g8
S'@]\x0b6\xc6|\xc7@'
p361
tp362
Rp363
aa(lp364
S'AChm4RGi'
p365
ag4
(g8
S'\xa0\xd4c\x15\xbbm\xd0\x15'
p366
tp367
Rp368
aa(lp369
S'Gim4R'
p370
ag4
(g8
S'\x84\x1dds\xb3n\x94@'
p371
tp372
Rp373
aa(lp374
S'GsaGDP'
p375
ag4
(g8
S'\x9a\xf6\xe9H\x90Me?'
p376
tp377
Rp378
aa(lp379
S'GqaGDP'
p380
ag4
(g8
S'\xbbZ_\x10\xf6RG\x15'
p381
tp382
Rp383
aa(lp384
S'GiaGTP'
p385
ag4
(g8
S'H\x9d\x19\xa9\x89\xdc[?'
p386
tp387
Rp388
aa(lp389
S'GiaGDP'
p390
ag4
(g8
S'D\xeb\xc7\x1bQp\xb6>'
p391
tp392
Rp393
aa(lp394
S'AC5'
p395
ag4
(g8
S'\xbe\x1a\xe2p\xe60\xa5@'
p396
tp397
Rp398
aa(lp399
S'AC5Gsa'
p400
ag4
(g8
S'\xf3]p\xa6\x7f\xd4O@'
p401
tp402
Rp403
aa(lp404
S'ATP'
p405
ag4
(g8
S':X\xcf\x162\xfe=A'
p406
tp407
Rp408
aa(lp409
S'AC5GsaATP'
p410
ag4
(g8
S'\xb5U\xd3\x05\xech\x81@'
p411
tp412
Rp413
aa(lp414
S'cAMP'
p415
ag4
(g8
S'\x17\x87\xa1_\xc7R\xa0@'
p416
tp417
Rp418
aa(lp419
S'AC5Gia'
p420
ag4
(g8
S"4\x8aQ\x93\xd7'\x9e?"
p421
tp422
Rp423
aa(lp424
S'AC5GsaGia'
p425
ag4
(g8
S'M\t\xb9[\x89FM?'
p426
tp427
Rp428
aa(lp429
S'AC5GsaGiaATP'
p430
ag4
(g8
S'\x88\x8a\x95\x06Z\xd8\xb3?'
p431
tp432
Rp433
aa(lp434
S'PDE1'
p435
ag4
(g8
S'\xbe\xa0v:S\x11\x82@'
p436
tp437
Rp438
aa(lp439
S'PDE1CamCa4'
p440
ag4
(g8
S'A/F\xffO\xe9\x92@'
p441
tp442
Rp443
aa(lp444
S'PDE1CamCa4cAMP'
p445
ag4
(g8
S'-\xfa\xf3\x1b3pj@'
p446
tp447
Rp448
aa(lp449
S'AMP'
p450
ag4
(g8
S'5"\xbbnG\x9a\xd0@'
p451
tp452
Rp453
aa(lp454
S'PDE10'
p455
ag4
(g8
S'h\xb7EP~`a@'
p456
tp457
Rp458
aa(lp459
S'PDE10cAMP'
p460
ag4
(g8
S"9f#rV'\x92@"
p461
tp462
Rp463
aa(lp464
S'pPDE10'
p465
ag4
(g8
S'\xb3\xd0e\xacC\xf2F@'
p466
tp467
Rp468
aa(lp469
S'pPDE10cAMP'
p470
ag4
(g8
S'\xe2;h\xc5\xd1\xf8w@'
p471
tp472
Rp473
aa(lp474
S'PKAcPDE10'
p475
ag4
(g8
S'x\x80t\xb7\xbc\x93,@'
p476
tp477
Rp478
aa(lp479
S'PKAcPDE10cAMP'
p480
ag4
(g8
S'2S\x8c\xfer\x83^@'
p481
tp482
Rp483
aa(lp484
S'pPDE10PP1'
p485
ag4
(g8
S'KM\x88\xa5i6\x9f?'
p486
tp487
Rp488
aa(lp489
S'PDE2'
p490
ag4
(g8
S'h\xbd\x85\x87\xa2\xc7{@'
p491
tp492
Rp493
aa(lp494
S'PDE2cAMP'
p495
ag4
(g8
S'JmV\xfa\xa4\xb1B@'
p496
tp497
Rp498
aa(lp499
S'PDE2cAMP2'
p500
ag4
(g8
S'\xed\xc6\xbdd\xa3\x88S@'
p501
tp502
Rp503
aa(lp504
S'PDE4'
p505
ag4
(g8
S'\x87I\xbcd7c`@'
p506
tp507
Rp508
aa(lp509
S'PDE4cAMP'
p510
ag4
(g8
S'z\xc2\x90n\xc8)Q@'
p511
tp512
Rp513
aa(lp514
S'pPDE4'
p515
ag4
(g8
S'\xf4b\xa9\xf5\xc6HH@'
p516
tp517
Rp518
aa(lp519
S'pPDE4cAMP'
p520
ag4
(g8
S'\xc1\xb89B\xffn9@'
p521
tp522
Rp523
aa(lp524
S'PKAcPDE4'
p525
ag4
(g8
S'\xa7GUS\xf1A\x10@'
p526
tp527
Rp528
aa(lp529
S'PKAcPDE4cAMP'
p530
ag4
(g8
S'\x0c\xb5\x83\x99s(\x01@'
p531
tp532
Rp533
aa(lp534
S'pPDE4PP1'
p535
ag4
(g8
S'f\xc4\xa1\x90T\x16\xa2?'
p536
tp537
Rp538
aa(lp539
S'Plc'
p540
ag4
(g8
S'\xe1z\x14\xaeG\xe1\xf2?'
p541
tp542
Rp543
aa(lp544
S'PlcCa'
p545
ag4
(g8
S'\x11\x11\x11\x11\x11\x11\xe1?'
p546
tp547
Rp548
aa(lp549
S'PlcCaGqa'
p550
ag4
(g8
S'\x00\x00\x00\x00\x00\x00\x00\x00'
p551
tp552
Rp553
aa(lp554
S'PlcGqa'
p555
ag4
(g8
S'\x00\x00\x00\x00\x00\x00\x00\x00'
p556
tp557
Rp558
aa(lp559
S'Pip2'
p560
ag4
(g8
S'VUUUU\xed\x83@'
p561
tp562
Rp563
aa(lp564
S'PlcCaPip2'
p565
ag4
(g8
S'\x00\x00\x00\x00\x00\x00\xf0?'
p566
tp567
Rp568
aa(lp569
S'Ip3'
p570
ag4
(g8
S'h\x93c)\xef\xd8I@'
p571
tp572
Rp573
aa(lp574
S'Dag'
p575
ag4
(g8
S'\xdd\x94\xf8\xc1e\xb0\x14@'
p576
tp577
Rp578
aa(lp579
S'PlcCaGqaPip2'
p580
ag4
(g8
S'\x00\x00\x00\x00\x00\x00\x00\x00'
p581
tp582
Rp583
aa(lp584
S'Dgl'
p585
ag4
(g8
S'\x89\x88\x88\x88\x88\x884@'
p586
tp587
Rp588
aa(lp589
S'CaDgl'
p590
ag4
(g8
S'\xdf\xdd\xdd\xdd\xdd\xdd\x1d@'
p591
tp592
Rp593
aa(lp594
S'DagCaDgl'
p595
ag4
(g8
S'\x00\x00\x00\x00\x00\x00\x00\x00'
p596
tp597
Rp598
aa(lp599
S'two_ag'
p600
ag4
(g8
S'\xa8W\xb4\xcd\xda\xa8V?'
p601
tp602
Rp603
aa(lp604
S'Ip3degrad'
p605
ag4
(g8
S'\x00\x00\x00\x00\x00\x00\x00\x00'
p606
tp607
Rp608
aa(lp609
S'PIkinase'
p610
ag4
(g8
S'\xde\xdd\xdd\xdd\xdd\xdd\xfd?'
p611
tp612
Rp613
aa(lp614
S'Ip3degPIk'
p615
ag4
(g8
S'\x00\x00\x00\x00\x00\x00\x00\x00'
p616
tp617
Rp618
aa(lp619
S'two_agDegrad'
p620
ag4
(g8
S'\x00\x00\x00\x00\x00\x00\x00\x00'
p621
tp622
Rp623
aa(lp624
S'DagK'
p625
ag4
(g8
S'\xab\xaa\xaa\xaa\xaa\xaa"@'
p626
tp627
Rp628
aa(lp629
S'DagKdag'
p630
ag4
(g8
S'\x00\x00\x00\x00\x00\x00\x00\x00'
p631
tp632
Rp633
aa(lp634
S'PA'
p635
ag4
(g8
S'\x00\x00\x00\x00\x00\x00\x00\x00'
p636
tp637
Rp638
aa(lp639
S'Pkc'
p640
ag4
(g8
S'\xb8N\x1aW)\xba\xc2@'
p641
tp642
Rp643
aa(lp644
S'PkcCa'
p645
ag4
(g8
S'\xf6Q\xe7\x89m\xb7y@'
p646
tp647
Rp648
aa(lp649
S'PkcCaDag'
p650
ag4
(g8
S'\xac\x82\xb5r\x96<\xcb?'
p651
tp652
Rp653
aa(lp654
S'PKA'
p655
ag4
(g8
S'6\xcf#k\xea\x03!?'
p656
tp657
Rp658
aa(lp659
S'PKAcAMP2'
p660
ag4
(g8
S'\x12\xc5\xc4\x9f\xce\xb8\x03@'
p661
tp662
Rp663
aa(lp664
S'PKAcAMP4'
p665
ag4
(g8
S'\xed\x8a\xd8\x19\xe8\x85\xb8@'
p666
tp667
Rp668
aa(lp669
S'PKAr'
p670
ag4
(g8
S'!f\xc3\xe7\xb6$x@'
p671
tp672
Rp673
aa(lp674
S'Cam'
p675
ag4
(g8
S',\xc7\xca]\xbbg\xc7@'
p676
tp677
Rp678
aa(lp679
S'PP2B'
p680
ag4
(g8
S'wO>]o\x05t?'
p681
tp682
Rp683
aa(lp684
S'PP2BCam'
p685
ag4
(g8
S'A\x84\xca\xc1v\x83\x04@'
p686
tp687
Rp688
aa(lp689
S'CamCa2C'
p690
ag4
(g8
S'c+ea$k\x8c@'
p691
tp692
Rp693
aa(lp694
S'PP2BCamCa2C'
p695
ag4
(g8
S'<\xc5\xc0{\x97Qh@'
p696
tp697
Rp698
aa(lp699
S'PP2BCamCa2N'
p700
ag4
(g8
S'\xe2S\xb2\x15\xac\x82=@'
p701
tp702
Rp703
aa(lp704
S'PP2BCamCa4'
p705
ag4
(g8
S'\xad\xc3\x93lc\xfdk@'
p706
tp707
Rp708
aa(lp709
S'PKAcPP2AB56d'
p710
ag4
(g8
S'!\x03q.\x1ctO@'
p711
tp712
Rp713
aa(lp714
S'pPP2A'
p715
ag4
(g8
S'_\xcc\xe8\xb8\x98|g@'
p716
tp717
Rp718
aa(lp719
S'PP2ABPR72'
p720
ag4
(g8
S'\xa8\xbf\xf9\xb1\xcb\xe0\x91@'
p721
tp722
Rp723
aa(lp724
S'PP2Acal'
p725
ag4
(g8
S'q\xe2X\xd3(\x8c8@'
p726
tp727
Rp728
aa(lp729
S'D32'
p730
ag4
(g8
S'\x82h=\xcd|&\xe3@'
p731
tp732
Rp733
aa(lp734
S'D32PKAc'
p735
ag4
(g8
S'|\x9f\x04\xf9\xe8^`@'
p736
tp737
Rp738
aa(lp739
S'D32p34'
p740
ag4
(g8
S'1\xf5\x15\x7fg\x06u@'
p741
tp742
Rp743
aa(lp744
S'D32p34PP1'
p745
ag4
(g8
S'F\xe0%,\x93SZ@'
p746
tp747
Rp748
aa(lp749
S'D32p34PP2BCamCa4'
p750
ag4
(g8
S'q\xa3\x12\xa6\xc9\xd4B@'
p751
tp752
Rp753
aa(lp754
S'D32p34PP1PP2BCamCa4'
p755
ag4
(g8
S"6\x1a\xaaXt\x94'@"
p756
tp757
Rp758
aa(lp759
S'D32p34PP2ABPR72'
p760
ag4
(g8
S'Bi\x94\x03M\xb7 @'
p761
tp762
Rp763
aa(lp764
S'D32p34PP2AB56d'
p765
ag4
(g8
S'\xd0\xeb\xfe\xf6\xcb\x90\x19@'
p766
tp767
Rp768
aa(lp769
S'D32p34PP1PP2ABPR72'
p770
ag4
(g8
S'c7\x8a\x00NG\x03@'
p771
tp772
Rp773
aa(lp774
S'D32p34PP1PP2AB56d'
p775
ag4
(g8
S'\x1f\x9a\xa4\x90\x1c|\xfd?'
p776
tp777
Rp778
aa(lp779
S'PP2AB56d'
p780
ag4
(g8
S'q(\r*\xc9W\x8b@'
p781
tp782
Rp783
aa(lp784
S'Cdk5'
p785
ag4
(g8
S'z&\xf7\t~\xdeu@'
p786
tp787
Rp788
aa(lp789
S'Cdk5D32'
p790
ag4
(g8
S'\x052\x82}`L\x93@'
p791
tp792
Rp793
aa(lp794
S'D32p75'
p795
ag4
(g8
S'\x8f\xe54\xb9P\xce\xbe@'
p796
tp797
Rp798
aa(lp799
S'D32p75PKAc'
p800
ag4
(g8
S'.J,*\x0e\x0bB@'
p801
tp802
Rp803
aa(lp804
S'D32p75pPP2A'
p805
ag4
(g8
S"\xdd'\x14\x91\xe3uZ@"
p806
tp807
Rp808
aa(lp809
S'D32p75PP2ABPR72'
p810
ag4
(g8
S"5\x7f'\xe6\r\xb5h@"
p811
tp812
Rp813
aa(lp814
S'D32p75PP2AB56d'
p815
ag4
(g8
S'$\xfd\xe21\xcb\xe4b@'
p816
tp817
Rp818
aa(lp819
S'D32p75PP2Acal'
p820
ag4
(g8
S'\xda\xc4=v\xd6\xa7+@'
p821
tp822
Rp823
aa(lp824
S'pDgl'
p825
ag4
(g8
S'\x00\x00\x00\x00\x00\x00\x00\x00'
p826
tp827
Rp828
aa(lp829
S'CapDgl'
p830
ag4
(g8
S'\x00\x00\x00\x00\x00\x00\x00\x00'
p831
tp832
Rp833
aa(lp834
S'DagCapDgl'
p835
ag4
(g8
S'\x00\x00\x00\x00\x00\x00\x00\x00'
p836
tp837
Rp838
aa(lp839
S'AKAR3'
p840
ag4
(g8
S'\x00\x00\x00\x00\x00\x00\x00\x00'
p841
tp842
Rp843
aa(lp844
S'PKAcAKAR3'
p845
ag4
(g8
S'\x00\x00\x00\x00\x00\x00\x00\x00'
p846
tp847
Rp848
aa(lp849
S'pAKAR3'
p850
ag4
(g8
S'\x00\x00\x00\x00\x00\x00\x00\x00'
p851
tp852
Rp853
aa(lp854
S'PP1pAKAR3'
p855
ag4
(g8
S'\x00\x00\x00\x00\x00\x00\x00\x00'
p856
tp857
Rp858
aa(lp859
S'AC1'
p860
ag4
(g8
S'\x15krV\xa3Xa@'
p861
tp862
Rp863
aa(lp864
S'AC1Gsa'
p865
ag4
(g8
S'B\xb70\xf6_A\x0c@'
p866
tp867
Rp868
aa(lp869
S'AC1GsaCamCa4'
p870
ag4
(g8
S'v\x96\x8a\xb6\rl\xdf?'
p871
tp872
Rp873
aa(lp874
S'AC1GsaCamCa4ATP'
p875
ag4
(g8
S'\x19\x00A/\x95\x91\x10@'
p876
tp877
Rp878
aa(lp879
S'AC1CamCa4'
p880
ag4
(g8
S')\xd7\x00\xae#]3@'
p881
tp882
Rp883
aa(lp884
S'AC1CamCa4ATP'
p885
ag4
(g8
S'\x88\rJ\xae\x1a\xe1d@'
p886
tp887
Rp888
aatp889
Rp890
.